target datalayout = "e-m:e-p270:32:32-p271:32:32-p272:64:64-i64:64-i128:128-f80:128-n8:16:32:64-S128"
target triple = "x86_64-pc-linux-gnu"

%struct.AVFilterPad = type { ptr, i32, i32, %union.anon.1, ptr, ptr, ptr }
%union.anon.1 = type { ptr }

@.str.12 = private unnamed_addr constant [3 x i8] c"in\00", align 1
@.str.13 = private unnamed_addr constant [4 x i8] c"out\00", align 1
@.str.14 = private unnamed_addr constant [8 x i8] c"%sput%d\00", align 1
@.str.15 = private unnamed_addr constant [15 x i8] c"Add %s pad %s\0A\00", align 1

; Function Attrs: nounwind uwtable
define internal i32 @parse_definition(ptr noundef %0, i32 noundef %1, i32 noundef %2, i32 noundef %3) #1 {
  %5 = alloca i32, align 4
  %6 = alloca ptr, align 8
  %7 = alloca i32, align 4
  %8 = alloca i32, align 4
  %9 = alloca i32, align 4
  %10 = alloca ptr, align 8
  %11 = alloca i32, align 4
  %12 = alloca i32, align 4
  %13 = alloca %struct.AVFilterPad, align 8
  %14 = alloca i32, align 4
  store ptr %0, ptr %6, align 8, !tbaa !4
  store i32 %1, ptr %7, align 4, !tbaa !24
  store i32 %2, ptr %8, align 4, !tbaa !24
  store i32 %3, ptr %9, align 4, !tbaa !24
  call void @llvm.lifetime.start.p0(i64 8, ptr %10) #10
  %15 = load i32, ptr %8, align 4, !tbaa !24
  %16 = icmp ne i32 %15, 0
  %17 = select i1 %16, ptr @.str.12, ptr @.str.13
  store ptr %17, ptr %10, align 8, !tbaa !34
  call void @llvm.lifetime.start.p0(i64 4, ptr %11) #10
  store i32 0, ptr %11, align 4, !tbaa !24
  call void @llvm.lifetime.start.p0(i64 4, ptr %12) #10
  store i32 0, ptr %12, align 4, !tbaa !24
  store i32 0, ptr %11, align 4, !tbaa !24
  br label %18

18:                                               ; preds = %58, %4
  %19 = load i32, ptr %11, align 4, !tbaa !24
  %20 = load i32, ptr %7, align 4, !tbaa !24
  %21 = icmp slt i32 %19, %20
  br i1 %21, label %22, label %61

22:                                               ; preds = %18
  call void @llvm.lifetime.start.p0(i64 48, ptr %13) #10
  call void @llvm.memset.p0.i64(ptr align 8 %13, i8 0, i64 48, i1 false)
  %23 = load i32, ptr %9, align 4, !tbaa !24
  %24 = icmp ne i32 %23, 0
  %25 = select i1 %24, i32 1, i32 0
  %26 = getelementptr inbounds nuw %struct.AVFilterPad, ptr %13, i32 0, i32 1
  store i32 %25, ptr %26, align 8, !tbaa !45
  %27 = load ptr, ptr %10, align 8, !tbaa !34
  %28 = load i32, ptr %11, align 4, !tbaa !24
  %29 = call ptr (ptr, ...) @av_asprintf(ptr noundef @.str.14, ptr noundef %27, i32 noundef %28)
  %30 = getelementptr inbounds nuw %struct.AVFilterPad, ptr %13, i32 0, i32 0
  store ptr %29, ptr %30, align 8, !tbaa !47
  %31 = getelementptr inbounds nuw %struct.AVFilterPad, ptr %13, i32 0, i32 0
  %32 = load ptr, ptr %31, align 8, !tbaa !47
  %33 = icmp ne ptr %32, null
  br i1 %33, label %35, label %34

34:                                               ; preds = %22
  store i32 -12, ptr %5, align 4
  store i32 1, ptr %14, align 4
  br label %55

35:                                               ; preds = %22
  %36 = load ptr, ptr %6, align 8, !tbaa !4
  %37 = load ptr, ptr %10, align 8, !tbaa !34
  %38 = getelementptr inbounds nuw %struct.AVFilterPad, ptr %13, i32 0, i32 0
  %39 = load ptr, ptr %38, align 8, !tbaa !47
  call void (ptr, i32, ptr, ...) @av_log(ptr noundef %36, i32 noundef 48, ptr noundef @.str.15, ptr noundef %37, ptr noundef %39)
  %40 = load i32, ptr %8, align 4, !tbaa !24
  %41 = icmp ne i32 %40, 0
  br i1 %41, label %42, label %45

42:                                               ; preds = %35
  %43 = load ptr, ptr %6, align 8, !tbaa !4
  %44 = call i32 @ff_append_inpad_free_name(ptr noundef %43, ptr noundef %13)
  store i32 %44, ptr %12, align 4, !tbaa !24
  br label %49

45:                                               ; preds = %35
  %46 = getelementptr inbounds nuw %struct.AVFilterPad, ptr %13, i32 0, i32 6
  store ptr @config_output, ptr %46, align 8, !tbaa !48
  %47 = load ptr, ptr %6, align 8, !tbaa !4
  %48 = call i32 @ff_append_outpad_free_name(ptr noundef %47, ptr noundef %13)
  store i32 %48, ptr %12, align 4, !tbaa !24
  br label %49

49:                                               ; preds = %45, %42
  %50 = load i32, ptr %12, align 4, !tbaa !24
  %51 = icmp slt i32 %50, 0
  br i1 %51, label %52, label %54

52:                                               ; preds = %49
  %53 = load i32, ptr %12, align 4, !tbaa !24
  store i32 %53, ptr %5, align 4
  store i32 1, ptr %14, align 4
  br label %55

54:                                               ; preds = %49
  store i32 0, ptr %14, align 4
  br label %55

55:                                               ; preds = %54, %52, %34
  call void @llvm.lifetime.end.p0(i64 48, ptr %13) #10
  %56 = load i32, ptr %14, align 4
  switch i32 %56, label %62 [
    i32 0, label %57
  ]

57:                                               ; preds = %55
  br label %58

58:                                               ; preds = %57
  %59 = load i32, ptr %11, align 4, !tbaa !24
  %60 = add nsw i32 %59, 1
  store i32 %60, ptr %11, align 4, !tbaa !24
  br label %18, !llvm.loop !49

61:                                               ; preds = %18
  store i32 0, ptr %5, align 4
  store i32 1, ptr %14, align 4
  br label %62

62:                                               ; preds = %61, %55
  call void @llvm.lifetime.end.p0(i64 4, ptr %12) #10
  call void @llvm.lifetime.end.p0(i64 4, ptr %11) #10
  call void @llvm.lifetime.end.p0(i64 8, ptr %10) #10
  %63 = load i32, ptr %5, align 4
  ret i32 %63
}