; Function Attrs: nounwind uwtable
define internal fastcc range(i32 -2147483648, 1) i32 @parse_definition(ptr noundef %0, i32 noundef %1, i32 noundef range(i32 0, 2) %2, i32 noundef %3) unnamed_addr #1 {
  %5 = alloca %struct.AVFilterPad, align 8
  %.not = icmp eq i32 %2, 0
  %6 = select i1 %.not, ptr @.str.13, ptr @.str.12
  %7 = icmp sgt i32 %1, 0
  br i1 %7, label %.lr.ph, label %.loopexit

.lr.ph:                                           ; preds = %4
  %.not19 = icmp ne i32 %3, 0
  %8 = zext i1 %.not19 to i32
  %9 = getelementptr inbounds nuw i8, ptr %5, i64 8
  %10 = getelementptr inbounds nuw i8, ptr %5, i64 40
  br i1 %.not, label %.lr.ph.split.us, label %.lr.ph.split

.lr.ph.split.us:                                  ; preds = %.lr.ph, %12
  %.01624.us = phi i32 [ %13, %12 ], [ 0, %.lr.ph ]
  call void @llvm.lifetime.start.p0(i64 48, ptr nonnull %5) #9
  call void @llvm.memset.p0.i64(ptr noundef nonnull align 8 dereferenceable(48) %5, i8 0, i64 48, i1 false)
  store i32 %8, ptr %9, align 8, !tbaa !39
  %11 = call ptr (ptr, ...) @av_asprintf(ptr noundef nonnull @.str.14, ptr noundef nonnull %6, i32 noundef %.01624.us) #9
  store ptr %11, ptr %5, align 8, !tbaa !41
  %.not20.us = icmp eq ptr %11, null
  br i1 %.not20.us, label %.thread, label %14

12:                                               ; preds = %14
  %13 = add nuw nsw i32 %.01624.us, 1
  %exitcond31.not = icmp eq i32 %13, %1
  br i1 %exitcond31.not, label %.loopexit, label %.lr.ph.split.us, !llvm.loop !42

14:                                               ; preds = %.lr.ph.split.us
  call void (ptr, i32, ptr, ...) @av_log(ptr noundef %0, i32 noundef 48, ptr noundef nonnull @.str.15, ptr noundef nonnull %6, ptr noundef nonnull %11) #9
  store ptr @config_output, ptr %10, align 8, !tbaa !44
  %15 = call i32 @ff_append_outpad_free_name(ptr noundef %0, ptr noundef nonnull %5) #9
  %16 = icmp sgt i32 %15, -1
  call void @llvm.lifetime.end.p0(i64 48, ptr nonnull %5) #9
  br i1 %16, label %12, label %.loopexit

17:                                               ; preds = %20
  %18 = add nuw nsw i32 %.01624, 1
  %exitcond.not = icmp eq i32 %18, %1
  br i1 %exitcond.not, label %.loopexit, label %.lr.ph.split, !llvm.loop !42

.lr.ph.split:                                     ; preds = %.lr.ph, %17
  %.01624 = phi i32 [ %18, %17 ], [ 0, %.lr.ph ]
  call void @llvm.lifetime.start.p0(i64 48, ptr nonnull %5) #9
  call void @llvm.memset.p0.i64(ptr noundef nonnull align 8 dereferenceable(48) %5, i8 0, i64 48, i1 false)
  store i32 %8, ptr %9, align 8, !tbaa !39
  %19 = call ptr (ptr, ...) @av_asprintf(ptr noundef nonnull @.str.14, ptr noundef nonnull %6, i32 noundef %.01624) #9
  store ptr %19, ptr %5, align 8, !tbaa !41
  %.not20 = icmp eq ptr %19, null
  br i1 %.not20, label %.thread, label %20

.thread:                                          ; preds = %.lr.ph.split, %.lr.ph.split.us
  call void @llvm.lifetime.end.p0(i64 48, ptr nonnull %5) #9
  br label %.loopexit

20:                                               ; preds = %.lr.ph.split
  call void (ptr, i32, ptr, ...) @av_log(ptr noundef %0, i32 noundef 48, ptr noundef nonnull @.str.15, ptr noundef nonnull %6, ptr noundef nonnull %19) #9
  %21 = call i32 @ff_append_inpad_free_name(ptr noundef %0, ptr noundef nonnull %5) #9
  %22 = icmp sgt i32 %21, -1
  call void @llvm.lifetime.end.p0(i64 48, ptr nonnull %5) #9
  br i1 %22, label %17, label %.loopexit

.loopexit:                                        ; preds = %20, %17, %14, %12, %4, %.thread
  %.2 = phi i32 [ -12, %.thread ], [ 0, %4 ], [ %15, %14 ], [ 0, %12 ], [ %21, %20 ], [ 0, %17 ]
  ret i32 %.2
}